; Function Attrs: mustprogress uwtable
define internal fastcc noundef zeroext i1 @_ZN2qeL10is_dividesER10arith_utilP4exprS3_R8rationalR7obj_refIS2_11ast_managerE(ptr noundef nonnull align 8 dereferenceable(16) %a, ptr noundef %e1, ptr nocapture noundef readonly %e2, ptr noundef nonnull align 8 dereferenceable(32) %k, ptr nocapture noundef nonnull align 8 dereferenceable(16) %p) unnamed_addr #3 {
entry:
  %is_int.i5 = alloca i8, align 1
  %is_int.i = alloca i8, align 1
  %m_kind.i.i.i.i = getelementptr inbounds i8, ptr %e2, i64 4
  %bf.load.i.i.i.i = load i32, ptr %m_kind.i.i.i.i, align 4
  %bf.clear.i.i.i.i = and i32 %bf.load.i.i.i.i, 65535
  %cmp.i.i.i = icmp eq i32 %bf.clear.i.i.i.i, 0
  br i1 %cmp.i.i.i, label %land.rhs.i.i.i, label %return

land.rhs.i.i.i:                                   ; preds = %entry
  %m_decl.i.i.i.i = getelementptr inbounds i8, ptr %e2, i64 16
  %0 = load ptr, ptr %m_decl.i.i.i.i, align 8
  %m_info.i.i.i.i.i = getelementptr inbounds i8, ptr %0, i64 24
  %1 = load ptr, ptr %m_info.i.i.i.i.i, align 8
  %tobool.not.i.i.i.i.i = icmp eq ptr %1, null
  br i1 %tobool.not.i.i.i.i.i, label %return, label %_ZNK17arith_recognizers6is_modEPK4expr.exit.i

_ZNK17arith_recognizers6is_modEPK4expr.exit.i:    ; preds = %land.rhs.i.i.i
  %2 = load i32, ptr %1, align 8
  %cmp.i.i.i.i.i.i = icmp eq i32 %2, 5
  %m_kind.i.i.i.i.i.i = getelementptr inbounds i8, ptr %1, i64 4
  %3 = load i32, ptr %m_kind.i.i.i.i.i.i, align 4
  %cmp2.i.i.i.i.i.i = icmp eq i32 %3, 16
  %4 = select i1 %cmp.i.i.i.i.i.i, i1 %cmp2.i.i.i.i.i.i, i1 false
  br i1 %4, label %land.lhs.true.i, label %return

land.lhs.true.i:                                  ; preds = %_ZNK17arith_recognizers6is_modEPK4expr.exit.i
  %m_num_args.i.i = getelementptr inbounds i8, ptr %e2, i64 24
  %5 = load i32, ptr %m_num_args.i.i, align 8
  %cmp.i = icmp eq i32 %5, 2
  br i1 %cmp.i, label %land.lhs.true, label %return

land.lhs.true:                                    ; preds = %land.lhs.true.i
  %m_args.i.i = getelementptr inbounds i8, ptr %e2, i64 32
  %6 = load ptr, ptr %m_args.i.i, align 8
  %arrayidx.i.i = getelementptr inbounds i8, ptr %e2, i64 40
  %7 = load ptr, ptr %arrayidx.i.i, align 8
  call void @llvm.lifetime.start.p0(i64 1, ptr nonnull %is_int.i)
  %call.i = call noundef zeroext i1 @_ZNK10arith_util10is_numeralEPK4exprR8rationalRb(ptr noundef nonnull align 8 dereferenceable(16) %a, ptr noundef %e1, ptr noundef nonnull align 8 dereferenceable(32) %k, ptr noundef nonnull align 1 dereferenceable(1) %is_int.i)
  call void @llvm.lifetime.end.p0(i64 1, ptr nonnull %is_int.i)
  %8 = load i32, ptr %k, align 8
  %cmp.i.i.i.i = icmp eq i32 %8, 0
  %or.cond = select i1 %call.i, i1 %cmp.i.i.i.i, i1 false
  br i1 %or.cond, label %land.lhs.true4, label %return

land.lhs.true4:                                   ; preds = %land.lhs.true
  call void @llvm.lifetime.start.p0(i64 1, ptr nonnull %is_int.i5)
  %call.i6 = call noundef zeroext i1 @_ZNK10arith_util10is_numeralEPK4exprR8rationalRb(ptr noundef nonnull align 8 dereferenceable(16) %a, ptr noundef %7, ptr noundef nonnull align 8 dereferenceable(32) %k, ptr noundef nonnull align 1 dereferenceable(1) %is_int.i5)
  call void @llvm.lifetime.end.p0(i64 1, ptr nonnull %is_int.i5)
  br i1 %call.i6, label %if.then, label %return

if.then:                                          ; preds = %land.lhs.true4
  %tobool.not.i = icmp eq ptr %6, null
  br i1 %tobool.not.i, label %if.end.i, label %_ZN11ast_manager7inc_refEP3ast.exit.i

_ZN11ast_manager7inc_refEP3ast.exit.i:            ; preds = %if.then
  %m_ref_count.i.i.i = getelementptr inbounds i8, ptr %6, i64 8
  %9 = load i32, ptr %m_ref_count.i.i.i, align 4
  %inc.i.i.i = add i32 %9, 1
  store i32 %inc.i.i.i, ptr %m_ref_count.i.i.i, align 4
  br label %if.end.i

if.end.i:                                         ; preds = %_ZN11ast_manager7inc_refEP3ast.exit.i, %if.then
  %10 = load ptr, ptr %p, align 8
  %tobool.not.i3.i = icmp eq ptr %10, null
  br i1 %tobool.not.i3.i, label %_ZN7obj_refI4expr11ast_managerEaSEPS0_.exit, label %if.then.i.i.i

if.then.i.i.i:                                    ; preds = %if.end.i
  %m_manager.i.i = getelementptr inbounds i8, ptr %p, i64 8
  %11 = load ptr, ptr %m_manager.i.i, align 8
  %m_ref_count.i.i.i.i = getelementptr inbounds i8, ptr %10, i64 8
  %12 = load i32, ptr %m_ref_count.i.i.i.i, align 4
  %dec.i.i.i.i = add i32 %12, -1
  store i32 %dec.i.i.i.i, ptr %m_ref_count.i.i.i.i, align 4
  %cmp.i.i.i7 = icmp eq i32 %dec.i.i.i.i, 0
  br i1 %cmp.i.i.i7, label %if.then2.i.i.i, label %_ZN7obj_refI4expr11ast_managerEaSEPS0_.exit

if.then2.i.i.i:                                   ; preds = %if.then.i.i.i
  call void @_ZN11ast_manager11delete_nodeEP3ast(ptr noundef nonnull align 8 dereferenceable(976) %11, ptr noundef nonnull %10)
  br label %_ZN7obj_refI4expr11ast_managerEaSEPS0_.exit

_ZN7obj_refI4expr11ast_managerEaSEPS0_.exit:      ; preds = %if.end.i, %if.then.i.i.i, %if.then2.i.i.i
  store ptr %6, ptr %p, align 8
  br label %return

return:                                           ; preds = %land.rhs.i.i.i, %entry, %_ZNK17arith_recognizers6is_modEPK4expr.exit.i, %land.lhs.true.i, %land.lhs.true, %land.lhs.true4, %_ZN7obj_refI4expr11ast_managerEaSEPS0_.exit
  %retval.0 = phi i1 [ true, %_ZN7obj_refI4expr11ast_managerEaSEPS0_.exit ], [ false, %land.lhs.true4 ], [ false, %land.lhs.true ], [ false, %land.lhs.true.i ], [ false, %_ZNK17arith_recognizers6is_modEPK4expr.exit.i ], [ false, %entry ], [ false, %land.rhs.i.i.i ]
  ret i1 %retval.0
}